target datalayout = "e-m:e-p270:32:32-p271:32:32-p272:64:64-i64:64-i128:128-f80:128-n8:16:32:64-S128"
target triple = "x86_64-unknown-linux-gnu"

%"class.QuantLib::AnalyticH1HWEngine::Fj_Helper" = type { i64, double, double, double, double, double, double, double, double, double }

; Function Attrs: mustprogress nounwind uwtable
define noundef double @_ZNK8QuantLib18AnalyticH1HWEngine9Fj_Helper6lambdaEd(ptr noundef nonnull align 8 dereferenceable(80) %this, double noundef %t) #3 align 2 {
entry:
  %this.addr = alloca ptr, align 8
  %t.addr = alloca double, align 8
  store ptr %this, ptr %this.addr, align 8, !tbaa !3
  store double %t, ptr %t.addr, align 8, !tbaa !14
  %this1 = load ptr, ptr %this.addr, align 8
  %kappa_ = getelementptr inbounds nuw %"class.QuantLib::AnalyticH1HWEngine::Fj_Helper", ptr %this1, i32 0, i32 4
  %0 = load double, ptr %kappa_, align 8, !tbaa !23
  %mul = fmul double 4.000000e+00, %0
  %v0_ = getelementptr inbounds nuw %"class.QuantLib::AnalyticH1HWEngine::Fj_Helper", ptr %this1, i32 0, i32 3
  %1 = load double, ptr %v0_, align 8, !tbaa !22
  %mul2 = fmul double %mul, %1
  %kappa_3 = getelementptr inbounds nuw %"class.QuantLib::AnalyticH1HWEngine::Fj_Helper", ptr %this1, i32 0, i32 4
  %2 = load double, ptr %kappa_3, align 8, !tbaa !23
  %fneg = fneg double %2
  %3 = load double, ptr %t.addr, align 8, !tbaa !14
  %mul4 = fmul double %fneg, %3
  %call = call double @exp(double noundef %mul4) #13, !tbaa !55
  %mul5 = fmul double %mul2, %call
  %gamma_ = getelementptr inbounds nuw %"class.QuantLib::AnalyticH1HWEngine::Fj_Helper", ptr %this1, i32 0, i32 6
  %4 = load double, ptr %gamma_, align 8, !tbaa !25
  %gamma_6 = getelementptr inbounds nuw %"class.QuantLib::AnalyticH1HWEngine::Fj_Helper", ptr %this1, i32 0, i32 6
  %5 = load double, ptr %gamma_6, align 8, !tbaa !25
  %mul7 = fmul double %4, %5
  %kappa_8 = getelementptr inbounds nuw %"class.QuantLib::AnalyticH1HWEngine::Fj_Helper", ptr %this1, i32 0, i32 4
  %6 = load double, ptr %kappa_8, align 8, !tbaa !23
  %fneg9 = fneg double %6
  %7 = load double, ptr %t.addr, align 8, !tbaa !14
  %mul10 = fmul double %fneg9, %7
  %call11 = call double @exp(double noundef %mul10) #13, !tbaa !55
  %sub = fsub double 1.000000e+00, %call11
  %mul12 = fmul double %mul7, %sub
  %div = fdiv double %mul5, %mul12
  ret double %div
}

; Function Attrs: mustprogress nounwind uwtable
define noundef double @_ZNK8QuantLib18AnalyticH1HWEngine9Fj_Helper1cEd(ptr noundef nonnull align 8 dereferenceable(80) %this, double noundef %t) #3 align 2 {
entry:
  %this.addr = alloca ptr, align 8
  %t.addr = alloca double, align 8
  store ptr %this, ptr %this.addr, align 8, !tbaa !3
  store double %t, ptr %t.addr, align 8, !tbaa !14
  %this1 = load ptr, ptr %this.addr, align 8
  %gamma_ = getelementptr inbounds nuw %"class.QuantLib::AnalyticH1HWEngine::Fj_Helper", ptr %this1, i32 0, i32 6
  %0 = load double, ptr %gamma_, align 8, !tbaa !25
  %gamma_2 = getelementptr inbounds nuw %"class.QuantLib::AnalyticH1HWEngine::Fj_Helper", ptr %this1, i32 0, i32 6
  %1 = load double, ptr %gamma_2, align 8, !tbaa !25
  %mul = fmul double %0, %1
  %kappa_ = getelementptr inbounds nuw %"class.QuantLib::AnalyticH1HWEngine::Fj_Helper", ptr %this1, i32 0, i32 4
  %2 = load double, ptr %kappa_, align 8, !tbaa !23
  %mul3 = fmul double 4.000000e+00, %2
  %div = fdiv double %mul, %mul3
  %kappa_4 = getelementptr inbounds nuw %"class.QuantLib::AnalyticH1HWEngine::Fj_Helper", ptr %this1, i32 0, i32 4
  %3 = load double, ptr %kappa_4, align 8, !tbaa !23
  %fneg = fneg double %3
  %4 = load double, ptr %t.addr, align 8, !tbaa !14
  %mul5 = fmul double %fneg, %4
  %call = call double @exp(double noundef %mul5) #13, !tbaa !55
  %sub = fsub double 1.000000e+00, %call
  %mul6 = fmul double %div, %sub
  ret double %mul6
}

; Function Attrs: mustprogress nounwind uwtable
define noundef double @_ZNK8QuantLib18AnalyticH1HWEngine9Fj_Helper12LambdaApproxEd(ptr noundef nonnull align 8 dereferenceable(80) %this, double noundef %t) #3 align 2 {
entry:
  %this.addr = alloca ptr, align 8
  %t.addr = alloca double, align 8
  store ptr %this, ptr %this.addr, align 8, !tbaa !3
  store double %t, ptr %t.addr, align 8, !tbaa !14
  %this1 = load ptr, ptr %this.addr, align 8
  %0 = load double, ptr %t.addr, align 8, !tbaa !14
  %call = call noundef double @_ZNK8QuantLib18AnalyticH1HWEngine9Fj_Helper1cEd(ptr noundef nonnull align 8 dereferenceable(80) %this1, double noundef %0)
  %1 = load double, ptr %t.addr, align 8, !tbaa !14
  %call2 = call noundef double @_ZNK8QuantLib18AnalyticH1HWEngine9Fj_Helper6lambdaEd(ptr noundef nonnull align 8 dereferenceable(80) %this1, double noundef %1)
  %sub = fsub double %call2, 1.000000e+00
  %2 = load double, ptr %t.addr, align 8, !tbaa !14
  %call3 = call noundef double @_ZNK8QuantLib18AnalyticH1HWEngine9Fj_Helper1cEd(ptr noundef nonnull align 8 dereferenceable(80) %this1, double noundef %2)
  %d_ = getelementptr inbounds nuw %"class.QuantLib::AnalyticH1HWEngine::Fj_Helper", ptr %this1, i32 0, i32 7
  %3 = load double, ptr %d_, align 8, !tbaa !26
  %mul4 = fmul double %call3, %3
  %d_5 = getelementptr inbounds nuw %"class.QuantLib::AnalyticH1HWEngine::Fj_Helper", ptr %this1, i32 0, i32 7
  %4 = load double, ptr %d_5, align 8, !tbaa !26
  %5 = load double, ptr %t.addr, align 8, !tbaa !14
  %call6 = call noundef double @_ZNK8QuantLib18AnalyticH1HWEngine9Fj_Helper6lambdaEd(ptr noundef nonnull align 8 dereferenceable(80) %this1, double noundef %5)
  %add = fadd double %4, %call6
  %mul7 = fmul double 2.000000e+00, %add
  %div = fdiv double 1.000000e+00, %mul7
  %add8 = fadd double 1.000000e+00, %div
  %mul9 = fmul double %mul4, %add8
  %6 = call double @llvm.fmuladd.f64(double %call, double %sub, double %mul9)
  %call10 = call double @sqrt(double noundef %6) #13, !tbaa !55
  ret double %call10
}