; Function Attrs: mustprogress nofree nounwind willreturn memory(write, argmem: readwrite) uwtable
define noundef double @_ZNK8QuantLib18AnalyticH1HWEngine9Fj_Helper12LambdaApproxEd(ptr nocapture noundef nonnull readonly align 8 dereferenceable(80) %this, double noundef %t) local_unnamed_addr #10 align 2 {
entry:
  %gamma_.i = getelementptr inbounds nuw i8, ptr %this, i64 48
  %0 = load double, ptr %gamma_.i, align 8, !tbaa !77
  %mul.i = fmul double %0, %0
  %kappa_.i = getelementptr inbounds nuw i8, ptr %this, i64 32
  %1 = load double, ptr %kappa_.i, align 8, !tbaa !75
  %mul3.i = fmul double %1, 4.000000e+00
  %div.i = fdiv double %mul.i, %mul3.i
  %fneg.i = fneg double %1
  %mul5.i = fmul double %t, %fneg.i
  %call.i = tail call double @exp(double noundef %mul5.i) #24, !tbaa !83
  %sub.i = fsub double 1.000000e+00, %call.i
  %mul6.i = fmul double %div.i, %sub.i
  %v0_.i = getelementptr inbounds nuw i8, ptr %this, i64 24
  %2 = load double, ptr %v0_.i, align 8, !tbaa !74
  %mul2.i = fmul double %mul3.i, %2
  %call.i7 = tail call double @exp(double noundef %mul5.i) #24, !tbaa !83
  %mul5.i8 = fmul double %mul2.i, %call.i7
  %call11.i = tail call double @exp(double noundef %mul5.i) #24, !tbaa !83
  %sub.i10 = fsub double 1.000000e+00, %call11.i
  %mul12.i = fmul double %mul.i, %sub.i10
  %div.i11 = fdiv double %mul5.i8, %mul12.i
  %sub = fadd double %div.i11, -1.000000e+00
  %call.i19 = tail call double @exp(double noundef %mul5.i) #24, !tbaa !83
  %sub.i20 = fsub double 1.000000e+00, %call.i19
  %mul6.i21 = fmul double %div.i, %sub.i20
  %d_ = getelementptr inbounds nuw i8, ptr %this, i64 56
  %3 = load double, ptr %d_, align 8, !tbaa !78
  %mul4 = fmul double %3, %mul6.i21
  %call.i28 = tail call double @exp(double noundef %mul5.i) #24, !tbaa !83
  %mul5.i29 = fmul double %mul2.i, %call.i28
  %call11.i32 = tail call double @exp(double noundef %mul5.i) #24, !tbaa !83
  %sub.i33 = fsub double 1.000000e+00, %call11.i32
  %mul12.i34 = fmul double %mul.i, %sub.i33
  %div.i35 = fdiv double %mul5.i29, %mul12.i34
  %add = fadd double %3, %div.i35
  %mul7 = fmul double %add, 2.000000e+00
  %div = fdiv double 1.000000e+00, %mul7
  %add8 = fadd double %div, 1.000000e+00
  %mul9 = fmul double %mul4, %add8
  %4 = tail call double @llvm.fmuladd.f64(double %mul6.i, double %sub, double %mul9)
  %call10 = tail call double @sqrt(double noundef %4) #24, !tbaa !83
  ret double %call10
}